target datalayout = "e-m:e-p270:32:32-p271:32:32-p272:64:64-i64:64-i128:128-f80:128-n8:16:32:64-S128"
target triple = "x86_64-pc-linux-gnu"

%struct.OGLContext = type { ptr, i32, i32, float, i32, i32, i8, i8, i8, i8, i32, i8, ptr, i32, i32, i8 }

@j2d_glActiveTextureARB = external global ptr, align 8
@j2d_glDisable = external global ptr, align 8
@j2d_glTexParameteri = external global ptr, align 8
@j2d_glUseProgramObjectARB = external global ptr, align 8
@j2d_glColor4ub = external global ptr, align 8

; Function Attrs: nounwind uwtable
define hidden void @OGLPaints_ResetPaint(ptr noundef %0) #0 {
  %2 = alloca ptr, align 8
  %3 = alloca i8, align 1
  store ptr %0, ptr %2, align 8
  %4 = load ptr, ptr %2, align 8
  %5 = icmp eq ptr %4, null
  br i1 %5, label %6, label %7

6:                                                ; preds = %1
  br label %88

7:                                                ; preds = %1
  br label %8

8:                                                ; preds = %7
  br label %9

9:                                                ; preds = %8
  br label %10

10:                                               ; preds = %9
  call void @OGLRenderQueue_CheckPreviousOp(i32 noundef -1)
  %11 = load ptr, ptr %2, align 8
  %12 = getelementptr inbounds %struct.OGLContext, ptr %11, i32 0, i32 11
  %13 = load i8, ptr %12, align 4
  %14 = icmp ne i8 %13, 0
  br i1 %14, label %15, label %17

15:                                               ; preds = %10
  %16 = load ptr, ptr @j2d_glActiveTextureARB, align 8
  call void %16(i32 noundef 33985)
  br label %17

17:                                               ; preds = %15, %10
  %18 = load ptr, ptr %2, align 8
  %19 = getelementptr inbounds %struct.OGLContext, ptr %18, i32 0, i32 10
  %20 = load i32, ptr %19, align 8
  switch i32 %20, label %36 [
    i32 2, label %21
    i32 5, label %24
    i32 3, label %32
    i32 4, label %32
    i32 1, label %35
  ]

21:                                               ; preds = %17
  %22 = load ptr, ptr @j2d_glDisable, align 8
  call void %22(i32 noundef 3552)
  %23 = load ptr, ptr @j2d_glDisable, align 8
  call void %23(i32 noundef 3168)
  br label %37

24:                                               ; preds = %17
  br label %25

25:                                               ; preds = %24
  %26 = load ptr, ptr @j2d_glTexParameteri, align 8
  call void %26(i32 noundef 3553, i32 noundef 10242, i32 noundef 33071)
  %27 = load ptr, ptr @j2d_glTexParameteri, align 8
  call void %27(i32 noundef 3553, i32 noundef 10243, i32 noundef 33071)
  br label %28

28:                                               ; preds = %25
  %29 = load ptr, ptr @j2d_glDisable, align 8
  call void %29(i32 noundef 3553)
  %30 = load ptr, ptr @j2d_glDisable, align 8
  call void %30(i32 noundef 3168)
  %31 = load ptr, ptr @j2d_glDisable, align 8
  call void %31(i32 noundef 3169)
  br label %37

32:                                               ; preds = %17, %17
  %33 = load ptr, ptr @j2d_glUseProgramObjectARB, align 8
  call void %33(i32 noundef 0)
  %34 = load ptr, ptr @j2d_glDisable, align 8
  call void %34(i32 noundef 3552)
  br label %37

35:                                               ; preds = %17
  br label %36

36:                                               ; preds = %35, %17
  br label %37

37:                                               ; preds = %36, %32, %28, %21
  %38 = load ptr, ptr %2, align 8
  %39 = getelementptr inbounds %struct.OGLContext, ptr %38, i32 0, i32 11
  %40 = load i8, ptr %39, align 4
  %41 = icmp ne i8 %40, 0
  br i1 %41, label %42, label %44

42:                                               ; preds = %37
  %43 = load ptr, ptr @j2d_glActiveTextureARB, align 8
  call void %43(i32 noundef 33984)
  br label %44

44:                                               ; preds = %42, %37
  %45 = load ptr, ptr %2, align 8
  %46 = getelementptr inbounds %struct.OGLContext, ptr %45, i32 0, i32 3
  %47 = load float, ptr %46, align 8
  %48 = call float @llvm.fmuladd.f32(float %47, float 2.550000e+02, float 5.000000e-01)
  %49 = fptoui float %48 to i8
  store i8 %49, ptr %3, align 1
  %50 = load ptr, ptr @j2d_glColor4ub, align 8
  %51 = load i8, ptr %3, align 1
  %52 = load i8, ptr %3, align 1
  %53 = load i8, ptr %3, align 1
  %54 = load i8, ptr %3, align 1
  call void %50(i8 noundef zeroext %51, i8 noundef zeroext %52, i8 noundef zeroext %53, i8 noundef zeroext %54)
  %55 = load i8, ptr %3, align 1
  %56 = zext i8 %55 to i32
  %57 = shl i32 %56, 24
  %58 = load i8, ptr %3, align 1
  %59 = zext i8 %58 to i32
  %60 = shl i32 %59, 16
  %61 = or i32 %57, %60
  %62 = load i8, ptr %3, align 1
  %63 = zext i8 %62 to i32
  %64 = shl i32 %63, 8
  %65 = or i32 %61, %64
  %66 = load i8, ptr %3, align 1
  %67 = zext i8 %66 to i32
  %68 = shl i32 %67, 0
  %69 = or i32 %65, %68
  %70 = load ptr, ptr %2, align 8
  %71 = getelementptr inbounds %struct.OGLContext, ptr %70, i32 0, i32 5
  store i32 %69, ptr %71, align 8
  %72 = load i8, ptr %3, align 1
  %73 = load ptr, ptr %2, align 8
  %74 = getelementptr inbounds %struct.OGLContext, ptr %73, i32 0, i32 6
  store i8 %72, ptr %74, align 4
  %75 = load i8, ptr %3, align 1
  %76 = load ptr, ptr %2, align 8
  %77 = getelementptr inbounds %struct.OGLContext, ptr %76, i32 0, i32 7
  store i8 %75, ptr %77, align 1
  %78 = load i8, ptr %3, align 1
  %79 = load ptr, ptr %2, align 8
  %80 = getelementptr inbounds %struct.OGLContext, ptr %79, i32 0, i32 8
  store i8 %78, ptr %80, align 2
  %81 = load i8, ptr %3, align 1
  %82 = load ptr, ptr %2, align 8
  %83 = getelementptr inbounds %struct.OGLContext, ptr %82, i32 0, i32 9
  store i8 %81, ptr %83, align 1
  %84 = load ptr, ptr %2, align 8
  %85 = getelementptr inbounds %struct.OGLContext, ptr %84, i32 0, i32 11
  store i8 0, ptr %85, align 4
  %86 = load ptr, ptr %2, align 8
  %87 = getelementptr inbounds %struct.OGLContext, ptr %86, i32 0, i32 10
  store i32 -1, ptr %87, align 8
  br label %88

88:                                               ; preds = %44, %6
  ret void
}