; Function Attrs: nounwind uwtable
define hidden void @OGLPaints_ResetPaint(ptr noundef %0) local_unnamed_addr #0 {
  %2 = icmp eq ptr %0, null
  br i1 %2, label %32, label %3

3:                                                ; preds = %1
  tail call void @OGLRenderQueue_CheckPreviousOp(i32 noundef -1) #6
  %4 = getelementptr inbounds i8, ptr %0, i64 36
  %5 = load i8, ptr %4, align 4
  %.not = icmp eq i8 %5, 0
  br i1 %.not, label %8, label %6

6:                                                ; preds = %3
  %7 = load ptr, ptr @j2d_glActiveTextureARB, align 8
  tail call void %7(i32 noundef 33985) #6
  br label %8

8:                                                ; preds = %6, %3
  %9 = getelementptr inbounds i8, ptr %0, i64 32
  %10 = load i32, ptr %9, align 8
  switch i32 %10, label %18 [
    i32 2, label %.sink.split
    i32 5, label %11
    i32 3, label %15
    i32 4, label %15
  ]

11:                                               ; preds = %8
  %12 = load ptr, ptr @j2d_glTexParameteri, align 8
  tail call void %12(i32 noundef 3553, i32 noundef 10242, i32 noundef 33071) #6
  %13 = load ptr, ptr @j2d_glTexParameteri, align 8
  tail call void %13(i32 noundef 3553, i32 noundef 10243, i32 noundef 33071) #6
  %14 = load ptr, ptr @j2d_glDisable, align 8
  tail call void %14(i32 noundef 3553) #6
  br label %.sink.split

15:                                               ; preds = %8, %8
  br label %.sink.split

.sink.split:                                      ; preds = %8, %11, %15
  %j2d_glUseProgramObjectARB.sink = phi ptr [ @j2d_glUseProgramObjectARB, %15 ], [ @j2d_glDisable, %11 ], [ @j2d_glDisable, %8 ]
  %.sink25 = phi i32 [ 0, %15 ], [ 3168, %11 ], [ 3552, %8 ]
  %.sink = phi i32 [ 3552, %15 ], [ 3169, %11 ], [ 3168, %8 ]
  %16 = load ptr, ptr %j2d_glUseProgramObjectARB.sink, align 8
  tail call void %16(i32 noundef %.sink25) #6
  %17 = load ptr, ptr @j2d_glDisable, align 8
  tail call void %17(i32 noundef %.sink) #6
  br label %18

18:                                               ; preds = %.sink.split, %8
  %19 = load i8, ptr %4, align 4
  %.not23 = icmp eq i8 %19, 0
  br i1 %.not23, label %22, label %20

20:                                               ; preds = %18
  %21 = load ptr, ptr @j2d_glActiveTextureARB, align 8
  tail call void %21(i32 noundef 33984) #6
  br label %22

22:                                               ; preds = %20, %18
  %23 = getelementptr inbounds i8, ptr %0, i64 16
  %24 = load float, ptr %23, align 8
  %25 = tail call float @llvm.fmuladd.f32(float %24, float 2.550000e+02, float 5.000000e-01)
  %26 = fptoui float %25 to i8
  %27 = load ptr, ptr @j2d_glColor4ub, align 8
  tail call void %27(i8 noundef zeroext %26, i8 noundef zeroext %26, i8 noundef zeroext %26, i8 noundef zeroext %26) #6
  %28 = zext i8 %26 to i32
  %29 = mul nuw i32 %28, 16843009
  %30 = getelementptr inbounds i8, ptr %0, i64 24
  store i32 %29, ptr %30, align 8
  %31 = getelementptr inbounds i8, ptr %0, i64 28
  tail call void @llvm.memset.p0.i64(ptr noundef nonnull align 4 dereferenceable(4) %31, i8 %26, i64 4, i1 false)
  store i8 0, ptr %4, align 4
  store i32 -1, ptr %9, align 8
  br label %32

32:                                               ; preds = %1, %22
  ret void
}